target datalayout = "e-m:e-p270:32:32-p271:32:32-p272:64:64-i64:64-i128:128-f80:128-n8:16:32:64-S128"
target triple = "x86_64-pc-linux-gnu"

%"class.icu_77::UnicodeString" = type { %"class.icu_77::Replaceable", %"union.icu_77::UnicodeString::StackBufferOrFields" }
%"class.icu_77::Replaceable" = type { %"class.icu_77::UObject" }
%"class.icu_77::UObject" = type { ptr }
%"union.icu_77::UnicodeString::StackBufferOrFields" = type { %struct.anon.0, [32 x i8] }
%struct.anon.0 = type { i16, i32, i32, ptr }
%struct.anon = type { i16, [27 x i16] }

; Function Attrs: inlinehint mustprogress nounwind uwtable
define linkonce_odr noundef ptr @_ZNK6icu_7713UnicodeString13getArrayStartEv(ptr noundef nonnull align 8 dereferenceable(64) %0) #2 comdat align 2 {
  %2 = alloca ptr, align 8
  store ptr %0, ptr %2, align 8, !tbaa !23
  %3 = load ptr, ptr %2, align 8
  %4 = getelementptr inbounds nuw %"class.icu_77::UnicodeString", ptr %3, i32 0, i32 1
  %5 = getelementptr inbounds nuw %struct.anon.0, ptr %4, i32 0, i32 0
  %6 = load i16, ptr %5, align 8, !tbaa !30
  %7 = sext i16 %6 to i32
  %8 = and i32 %7, 2
  %9 = icmp ne i32 %8, 0
  br i1 %9, label %10, label %14

10:                                               ; preds = %1
  %11 = getelementptr inbounds nuw %"class.icu_77::UnicodeString", ptr %3, i32 0, i32 1
  %12 = getelementptr inbounds nuw %struct.anon, ptr %11, i32 0, i32 1
  %13 = getelementptr inbounds [27 x i16], ptr %12, i64 0, i64 0
  br label %18

14:                                               ; preds = %1
  %15 = getelementptr inbounds nuw %"class.icu_77::UnicodeString", ptr %3, i32 0, i32 1
  %16 = getelementptr inbounds nuw %struct.anon.0, ptr %15, i32 0, i32 3
  %17 = load ptr, ptr %16, align 8, !tbaa !30
  br label %18

18:                                               ; preds = %14, %10
  %19 = phi ptr [ %13, %10 ], [ %17, %14 ]
  ret ptr %19
}

; Function Attrs: inlinehint mustprogress uwtable
define linkonce_odr noundef zeroext i16 @_ZNK6icu_7713UnicodeString8doCharAtEi(ptr noundef nonnull align 8 dereferenceable(64) %0, i32 noundef %1) #3 comdat align 2 {
  %3 = alloca i16, align 2
  %4 = alloca ptr, align 8
  %5 = alloca i32, align 4
  store ptr %0, ptr %4, align 8, !tbaa !23
  store i32 %1, ptr %5, align 4, !tbaa !14
  %6 = load ptr, ptr %4, align 8
  %7 = load i32, ptr %5, align 4, !tbaa !14
  %8 = call noundef i32 @_ZNK6icu_7713UnicodeString6lengthEv(ptr noundef nonnull align 8 dereferenceable(64) %6)
  %9 = icmp ult i32 %7, %8
  br i1 %9, label %10, label %16

10:                                               ; preds = %2
  %11 = call noundef ptr @_ZNK6icu_7713UnicodeString13getArrayStartEv(ptr noundef nonnull align 8 dereferenceable(64) %6)
  %12 = load i32, ptr %5, align 4, !tbaa !14
  %13 = sext i32 %12 to i64
  %14 = getelementptr inbounds i16, ptr %11, i64 %13
  %15 = load i16, ptr %14, align 2, !tbaa !25
  store i16 %15, ptr %3, align 2
  br label %17

16:                                               ; preds = %2
  store i16 -1, ptr %3, align 2
  br label %17

17:                                               ; preds = %16, %10
  %18 = load i16, ptr %3, align 2
  ret i16 %18
}

; Function Attrs: inlinehint mustprogress nounwind uwtable
define linkonce_odr noundef i32 @_ZNK6icu_7713UnicodeString14getShortLengthEv(ptr noundef nonnull align 8 dereferenceable(64) %0) #2 comdat align 2 {
  %2 = alloca ptr, align 8
  store ptr %0, ptr %2, align 8, !tbaa !23
  %3 = load ptr, ptr %2, align 8
  %4 = getelementptr inbounds nuw %"class.icu_77::UnicodeString", ptr %3, i32 0, i32 1
  %5 = getelementptr inbounds nuw %struct.anon.0, ptr %4, i32 0, i32 0
  %6 = load i16, ptr %5, align 8, !tbaa !30
  %7 = sext i16 %6 to i32
  %8 = ashr i32 %7, 5
  ret i32 %8
}

; Function Attrs: inlinehint mustprogress nounwind uwtable
define linkonce_odr noundef signext i8 @_ZNK6icu_7713UnicodeString14hasShortLengthEv(ptr noundef nonnull align 8 dereferenceable(64) %0) #2 comdat align 2 {
  %2 = alloca ptr, align 8
  store ptr %0, ptr %2, align 8, !tbaa !23
  %3 = load ptr, ptr %2, align 8
  %4 = getelementptr inbounds nuw %"class.icu_77::UnicodeString", ptr %3, i32 0, i32 1
  %5 = getelementptr inbounds nuw %struct.anon.0, ptr %4, i32 0, i32 0
  %6 = load i16, ptr %5, align 8, !tbaa !30
  %7 = sext i16 %6 to i32
  %8 = icmp sge i32 %7, 0
  %9 = zext i1 %8 to i8
  ret i8 %9
}

; Function Attrs: inlinehint mustprogress uwtable
define linkonce_odr noundef zeroext i16 @_ZNK6icu_7713UnicodeString6charAtEi(ptr noundef nonnull align 8 dereferenceable(64) %0, i32 noundef %1) #3 comdat align 2 {
  %3 = alloca ptr, align 8
  %4 = alloca i32, align 4
  store ptr %0, ptr %3, align 8, !tbaa !23
  store i32 %1, ptr %4, align 4, !tbaa !14
  %5 = load ptr, ptr %3, align 8
  %6 = load i32, ptr %4, align 4, !tbaa !14
  %7 = call noundef zeroext i16 @_ZNK6icu_7713UnicodeString8doCharAtEi(ptr noundef nonnull align 8 dereferenceable(64) %5, i32 noundef %6)
  ret i16 %7
}

; Function Attrs: inlinehint mustprogress uwtable
define linkonce_odr noundef i32 @_ZNK6icu_7713UnicodeString6lengthEv(ptr noundef nonnull align 8 dereferenceable(64) %0) #3 comdat align 2 {
  %2 = alloca ptr, align 8
  store ptr %0, ptr %2, align 8, !tbaa !23
  %3 = load ptr, ptr %2, align 8
  %4 = call noundef signext i8 @_ZNK6icu_7713UnicodeString14hasShortLengthEv(ptr noundef nonnull align 8 dereferenceable(64) %3)
  %5 = icmp ne i8 %4, 0
  br i1 %5, label %6, label %8

6:                                                ; preds = %1
  %7 = call noundef i32 @_ZNK6icu_7713UnicodeString14getShortLengthEv(ptr noundef nonnull align 8 dereferenceable(64) %3)
  br label %12

8:                                                ; preds = %1
  %9 = getelementptr inbounds nuw %"class.icu_77::UnicodeString", ptr %3, i32 0, i32 1
  %10 = getelementptr inbounds nuw %struct.anon.0, ptr %9, i32 0, i32 1
  %11 = load i32, ptr %10, align 4, !tbaa !30
  br label %12

12:                                               ; preds = %8, %6
  %13 = phi i32 [ %7, %6 ], [ %11, %8 ]
  ret i32 %13
}

; Function Attrs: inlinehint mustprogress uwtable
define linkonce_odr noundef i32 @_ZNK6icu_7713UnicodeString7indexOfEDs(ptr noundef nonnull align 8 dereferenceable(64) %0, i16 noundef zeroext %1) #3 comdat align 2 {
  %3 = alloca ptr, align 8
  %4 = alloca i16, align 2
  store ptr %0, ptr %3, align 8, !tbaa !23
  store i16 %1, ptr %4, align 2, !tbaa !25
  %5 = load ptr, ptr %3, align 8
  %6 = load i16, ptr %4, align 2, !tbaa !25
  %7 = call noundef i32 @_ZNK6icu_7713UnicodeString6lengthEv(ptr noundef nonnull align 8 dereferenceable(64) %5)
  %8 = call noundef i32 @_ZNK6icu_7713UnicodeString9doIndexOfEDsii(ptr noundef nonnull align 8 dereferenceable(64) %5, i16 noundef zeroext %6, i32 noundef 0, i32 noundef %7)
  ret i32 %8
}

; Function Attrs: mustprogress uwtable
define noundef nonnull align 8 dereferenceable(64) ptr @_ZN6icu_7713LocaleUtility21canonicalLocaleStringEPKNS_13UnicodeStringERS1_(ptr noundef %0, ptr noundef nonnull align 8 dereferenceable(64) %1) #1 align 2 {
  %3 = alloca ptr, align 8
  %4 = alloca ptr, align 8
  %5 = alloca i32, align 4
  %6 = alloca i32, align 4
  %7 = alloca i32, align 4
  %8 = alloca i16, align 2
  %9 = alloca i16, align 2
  store ptr %0, ptr %3, align 8, !tbaa !23
  store ptr %1, ptr %4, align 8, !tbaa !23
  %10 = load ptr, ptr %3, align 8, !tbaa !23
  %11 = icmp eq ptr %10, null
  br i1 %11, label %12, label %14

12:                                               ; preds = %2
  %13 = load ptr, ptr %4, align 8, !tbaa !23
  call void @_ZN6icu_7713UnicodeString10setToBogusEv(ptr noundef nonnull align 8 dereferenceable(64) %13)
  br label %103

14:                                               ; preds = %2
  %15 = load ptr, ptr %3, align 8, !tbaa !23
  %16 = load ptr, ptr %4, align 8, !tbaa !23
  %17 = call noundef nonnull align 8 dereferenceable(64) ptr @_ZN6icu_7713UnicodeStringaSERKS0_(ptr noundef nonnull align 8 dereferenceable(64) %16, ptr noundef nonnull align 8 dereferenceable(64) %15)
  call void @llvm.lifetime.start.p0(i64 4, ptr %5) #11
  store i32 0, ptr %5, align 4, !tbaa !14
  call void @llvm.lifetime.start.p0(i64 4, ptr %6) #11
  %18 = load ptr, ptr %4, align 8, !tbaa !23
  %19 = call noundef i32 @_ZNK6icu_7713UnicodeString7indexOfEDs(ptr noundef nonnull align 8 dereferenceable(64) %18, i16 noundef zeroext 64)
  store i32 %19, ptr %6, align 4, !tbaa !14
  call void @llvm.lifetime.start.p0(i64 4, ptr %7) #11
  %20 = load ptr, ptr %4, align 8, !tbaa !23
  %21 = call noundef i32 @_ZNK6icu_7713UnicodeString7indexOfEDs(ptr noundef nonnull align 8 dereferenceable(64) %20, i16 noundef zeroext 46)
  store i32 %21, ptr %7, align 4, !tbaa !14
  %22 = load i32, ptr %7, align 4, !tbaa !14
  %23 = icmp sge i32 %22, 0
  br i1 %23, label %24, label %30

24:                                               ; preds = %14
  %25 = load i32, ptr %7, align 4, !tbaa !14
  %26 = load i32, ptr %6, align 4, !tbaa !14
  %27 = icmp slt i32 %25, %26
  br i1 %27, label %28, label %30

28:                                               ; preds = %24
  %29 = load i32, ptr %7, align 4, !tbaa !14
  store i32 %29, ptr %6, align 4, !tbaa !14
  br label %30

30:                                               ; preds = %28, %24, %14
  %31 = load i32, ptr %6, align 4, !tbaa !14
  %32 = icmp slt i32 %31, 0
  br i1 %32, label %33, label %36

33:                                               ; preds = %30
  %34 = load ptr, ptr %4, align 8, !tbaa !23
  %35 = call noundef i32 @_ZNK6icu_7713UnicodeString6lengthEv(ptr noundef nonnull align 8 dereferenceable(64) %34)
  store i32 %35, ptr %6, align 4, !tbaa !14
  br label %36

36:                                               ; preds = %33, %30
  %37 = load ptr, ptr %4, align 8, !tbaa !23
  %38 = call noundef i32 @_ZNK6icu_7713UnicodeString7indexOfEDs(ptr noundef nonnull align 8 dereferenceable(64) %37, i16 noundef zeroext 95)
  store i32 %38, ptr %7, align 4, !tbaa !14
  %39 = load i32, ptr %7, align 4, !tbaa !14
  %40 = icmp slt i32 %39, 0
  br i1 %40, label %41, label %43

41:                                               ; preds = %36
  %42 = load i32, ptr %6, align 4, !tbaa !14
  store i32 %42, ptr %7, align 4, !tbaa !14
  br label %43

43:                                               ; preds = %41, %36
  br label %44

44:                                               ; preds = %69, %43
  %45 = load i32, ptr %5, align 4, !tbaa !14
  %46 = load i32, ptr %7, align 4, !tbaa !14
  %47 = icmp slt i32 %45, %46
  br i1 %47, label %48, label %72

48:                                               ; preds = %44
  call void @llvm.lifetime.start.p0(i64 2, ptr %8) #11
  %49 = load ptr, ptr %4, align 8, !tbaa !23
  %50 = load i32, ptr %5, align 4, !tbaa !14
  %51 = call noundef zeroext i16 @_ZNK6icu_7713UnicodeString6charAtEi(ptr noundef nonnull align 8 dereferenceable(64) %49, i32 noundef %50)
  store i16 %51, ptr %8, align 2, !tbaa !25
  %52 = load i16, ptr %8, align 2, !tbaa !25
  %53 = zext i16 %52 to i32
  %54 = icmp sge i32 %53, 65
  br i1 %54, label %55, label %68

55:                                               ; preds = %48
  %56 = load i16, ptr %8, align 2, !tbaa !25
  %57 = zext i16 %56 to i32
  %58 = icmp sle i32 %57, 90
  br i1 %58, label %59, label %68

59:                                               ; preds = %55
  %60 = load i16, ptr %8, align 2, !tbaa !25
  %61 = zext i16 %60 to i32
  %62 = add nsw i32 %61, 32
  %63 = trunc i32 %62 to i16
  store i16 %63, ptr %8, align 2, !tbaa !25
  %64 = load ptr, ptr %4, align 8, !tbaa !23
  %65 = load i32, ptr %5, align 4, !tbaa !14
  %66 = load i16, ptr %8, align 2, !tbaa !25
  %67 = call noundef nonnull align 8 dereferenceable(64) ptr @_ZN6icu_7713UnicodeString9setCharAtEiDs(ptr noundef nonnull align 8 dereferenceable(64) %64, i32 noundef %65, i16 noundef zeroext %66)
  br label %68

68:                                               ; preds = %59, %55, %48
  call void @llvm.lifetime.end.p0(i64 2, ptr %8) #11
  br label %69

69:                                               ; preds = %68
  %70 = load i32, ptr %5, align 4, !tbaa !14
  %71 = add nsw i32 %70, 1
  store i32 %71, ptr %5, align 4, !tbaa !14
  br label %44, !llvm.loop !27

72:                                               ; preds = %44
  %73 = load i32, ptr %6, align 4, !tbaa !14
  store i32 %73, ptr %7, align 4, !tbaa !14
  br label %74

74:                                               ; preds = %99, %72
  %75 = load i32, ptr %5, align 4, !tbaa !14
  %76 = load i32, ptr %7, align 4, !tbaa !14
  %77 = icmp slt i32 %75, %76
  br i1 %77, label %78, label %102

78:                                               ; preds = %74
  call void @llvm.lifetime.start.p0(i64 2, ptr %9) #11
  %79 = load ptr, ptr %4, align 8, !tbaa !23
  %80 = load i32, ptr %5, align 4, !tbaa !14
  %81 = call noundef zeroext i16 @_ZNK6icu_7713UnicodeString6charAtEi(ptr noundef nonnull align 8 dereferenceable(64) %79, i32 noundef %80)
  store i16 %81, ptr %9, align 2, !tbaa !25
  %82 = load i16, ptr %9, align 2, !tbaa !25
  %83 = zext i16 %82 to i32
  %84 = icmp sge i32 %83, 97
  br i1 %84, label %85, label %98

85:                                               ; preds = %78
  %86 = load i16, ptr %9, align 2, !tbaa !25
  %87 = zext i16 %86 to i32
  %88 = icmp sle i32 %87, 122
  br i1 %88, label %89, label %98

89:                                               ; preds = %85
  %90 = load i16, ptr %9, align 2, !tbaa !25
  %91 = zext i16 %90 to i32
  %92 = sub nsw i32 %91, 32
  %93 = trunc i32 %92 to i16
  store i16 %93, ptr %9, align 2, !tbaa !25
  %94 = load ptr, ptr %4, align 8, !tbaa !23
  %95 = load i32, ptr %5, align 4, !tbaa !14
  %96 = load i16, ptr %9, align 2, !tbaa !25
  %97 = call noundef nonnull align 8 dereferenceable(64) ptr @_ZN6icu_7713UnicodeString9setCharAtEiDs(ptr noundef nonnull align 8 dereferenceable(64) %94, i32 noundef %95, i16 noundef zeroext %96)
  br label %98

98:                                               ; preds = %89, %85, %78
  call void @llvm.lifetime.end.p0(i64 2, ptr %9) #11
  br label %99

99:                                               ; preds = %98
  %100 = load i32, ptr %5, align 4, !tbaa !14
  %101 = add nsw i32 %100, 1
  store i32 %101, ptr %5, align 4, !tbaa !14
  br label %74, !llvm.loop !29

102:                                              ; preds = %74
  call void @llvm.lifetime.end.p0(i64 4, ptr %7) #11
  call void @llvm.lifetime.end.p0(i64 4, ptr %6) #11
  call void @llvm.lifetime.end.p0(i64 4, ptr %5) #11
  br label %103

103:                                              ; preds = %102, %12
  %104 = load ptr, ptr %4, align 8, !tbaa !23
  ret ptr %104
}