; Function Attrs: mustprogress uwtable
define noundef nonnull align 8 dereferenceable(64) ptr @_ZN6icu_7713LocaleUtility21canonicalLocaleStringEPKNS_13UnicodeStringERS1_(ptr noundef %0, ptr noundef nonnull returned align 8 dereferenceable(64) %1) local_unnamed_addr #1 align 2 {
  %3 = icmp eq ptr %0, null
  br i1 %3, label %4, label %5

4:                                                ; preds = %2
  tail call void @_ZN6icu_7713UnicodeString10setToBogusEv(ptr noundef nonnull align 8 dereferenceable(64) %1)
  br label %.loopexit

5:                                                ; preds = %2
  %6 = tail call noundef nonnull align 8 dereferenceable(64) ptr @_ZN6icu_7713UnicodeStringaSERKS0_(ptr noundef nonnull align 8 dereferenceable(64) %1, ptr noundef nonnull align 8 dereferenceable(64) %0)
  %7 = getelementptr inbounds nuw i8, ptr %1, i64 8
  %8 = load i16, ptr %7, align 8, !tbaa !15
  %9 = icmp slt i16 %8, 0
  %10 = ashr i16 %8, 5
  %11 = sext i16 %10 to i32
  %12 = getelementptr inbounds nuw i8, ptr %1, i64 12
  %13 = load i32, ptr %12, align 4
  %14 = select i1 %9, i32 %13, i32 %11
  %15 = tail call noundef i32 @_ZNK6icu_7713UnicodeString9doIndexOfEDsii(ptr noundef nonnull align 8 dereferenceable(64) %1, i16 noundef zeroext 64, i32 noundef 0, i32 noundef %14)
  %16 = load i16, ptr %7, align 8, !tbaa !15
  %17 = icmp slt i16 %16, 0
  %18 = ashr i16 %16, 5
  %19 = sext i16 %18 to i32
  %20 = load i32, ptr %12, align 4
  %21 = select i1 %17, i32 %20, i32 %19
  %22 = tail call noundef i32 @_ZNK6icu_7713UnicodeString9doIndexOfEDsii(ptr noundef nonnull align 8 dereferenceable(64) %1, i16 noundef zeroext 46, i32 noundef 0, i32 noundef %21)
  %23 = tail call i32 @llvm.smin.i32(i32 %22, i32 %15)
  %24 = icmp slt i32 %22, 0
  %.043 = select i1 %24, i32 %15, i32 %23
  %25 = icmp slt i32 %.043, 0
  %.pre = load i16, ptr %7, align 8, !tbaa !15
  %.pre69 = load i32, ptr %12, align 4
  br i1 %25, label %26, label %._crit_edge

._crit_edge:                                      ; preds = %5
  %.pre70 = ashr i16 %.pre, 5
  %.pre71 = sext i16 %.pre70 to i32
  br label %31

26:                                               ; preds = %5
  %27 = icmp slt i16 %.pre, 0
  %28 = ashr i16 %.pre, 5
  %29 = sext i16 %28 to i32
  %30 = select i1 %27, i32 %.pre69, i32 %29
  br label %31

31:                                               ; preds = %._crit_edge, %26
  %.pre-phi72 = phi i32 [ %.pre71, %._crit_edge ], [ %29, %26 ]
  %.1 = phi i32 [ %.043, %._crit_edge ], [ %30, %26 ]
  %32 = icmp slt i16 %.pre, 0
  %33 = select i1 %32, i32 %.pre69, i32 %.pre-phi72
  %34 = tail call noundef i32 @_ZNK6icu_7713UnicodeString9doIndexOfEDsii(ptr noundef nonnull align 8 dereferenceable(64) %1, i16 noundef zeroext 95, i32 noundef 0, i32 noundef %33)
  %35 = icmp slt i32 %34, 0
  %spec.select = select i1 %35, i32 %.1, i32 %34
  %36 = icmp sgt i32 %spec.select, 0
  br i1 %36, label %.lr.ph, label %.preheader

.lr.ph:                                           ; preds = %31
  %37 = getelementptr inbounds nuw i8, ptr %1, i64 10
  %38 = getelementptr inbounds nuw i8, ptr %1, i64 24
  %wide.trip.count = zext nneg i32 %spec.select to i64
  br label %43

.preheader:                                       ; preds = %_ZNK6icu_7713UnicodeString6charAtEi.exit.thread, %31
  %.044.lcssa = phi i32 [ 0, %31 ], [ %spec.select, %_ZNK6icu_7713UnicodeString6charAtEi.exit.thread ]
  %39 = icmp slt i32 %.044.lcssa, %.1
  br i1 %39, label %.lr.ph62, label %.loopexit

.lr.ph62:                                         ; preds = %.preheader
  %40 = getelementptr inbounds nuw i8, ptr %1, i64 10
  %41 = getelementptr inbounds nuw i8, ptr %1, i64 24
  %42 = zext nneg i32 %.044.lcssa to i64
  %wide.trip.count67 = zext i32 %.1 to i64
  br label %62

43:                                               ; preds = %.lr.ph, %_ZNK6icu_7713UnicodeString6charAtEi.exit.thread
  %indvars.iv = phi i64 [ 0, %.lr.ph ], [ %indvars.iv.next, %_ZNK6icu_7713UnicodeString6charAtEi.exit.thread ]
  %44 = load i16, ptr %7, align 8, !tbaa !15
  %45 = icmp slt i16 %44, 0
  %46 = ashr i16 %44, 5
  %47 = sext i16 %46 to i32
  %48 = load i32, ptr %12, align 4
  %49 = select i1 %45, i32 %48, i32 %47
  %50 = zext i32 %49 to i64
  %51 = icmp samesign ult i64 %indvars.iv, %50
  br i1 %51, label %_ZNK6icu_7713UnicodeString6charAtEi.exit, label %_ZNK6icu_7713UnicodeString6charAtEi.exit.thread

_ZNK6icu_7713UnicodeString6charAtEi.exit:         ; preds = %43
  %52 = and i16 %44, 2
  %.not.i.i.i = icmp eq i16 %52, 0
  %53 = load ptr, ptr %38, align 8
  %54 = select i1 %.not.i.i.i, ptr %53, ptr %37
  %55 = getelementptr inbounds nuw i16, ptr %54, i64 %indvars.iv
  %56 = load i16, ptr %55, align 2, !tbaa !16
  %57 = add i16 %56, -65
  %or.cond = icmp ult i16 %57, 26
  br i1 %or.cond, label %58, label %_ZNK6icu_7713UnicodeString6charAtEi.exit.thread

58:                                               ; preds = %_ZNK6icu_7713UnicodeString6charAtEi.exit
  %59 = or disjoint i16 %56, 32
  %60 = trunc nuw nsw i64 %indvars.iv to i32
  %61 = tail call noundef nonnull align 8 dereferenceable(64) ptr @_ZN6icu_7713UnicodeString9setCharAtEiDs(ptr noundef nonnull align 8 dereferenceable(64) %1, i32 noundef %60, i16 noundef zeroext %59)
  br label %_ZNK6icu_7713UnicodeString6charAtEi.exit.thread

_ZNK6icu_7713UnicodeString6charAtEi.exit.thread:  ; preds = %43, %58, %_ZNK6icu_7713UnicodeString6charAtEi.exit
  %indvars.iv.next = add nuw nsw i64 %indvars.iv, 1
  %exitcond.not = icmp eq i64 %indvars.iv.next, %wide.trip.count
  br i1 %exitcond.not, label %.preheader, label %43, !llvm.loop !18

62:                                               ; preds = %.lr.ph62, %_ZNK6icu_7713UnicodeString6charAtEi.exit55.thread
  %indvars.iv64 = phi i64 [ %42, %.lr.ph62 ], [ %indvars.iv.next65, %_ZNK6icu_7713UnicodeString6charAtEi.exit55.thread ]
  %63 = load i16, ptr %7, align 8, !tbaa !15
  %64 = icmp slt i16 %63, 0
  %65 = ashr i16 %63, 5
  %66 = sext i16 %65 to i32
  %67 = load i32, ptr %12, align 4
  %68 = select i1 %64, i32 %67, i32 %66
  %69 = zext i32 %68 to i64
  %70 = icmp samesign ult i64 %indvars.iv64, %69
  br i1 %70, label %_ZNK6icu_7713UnicodeString6charAtEi.exit55, label %_ZNK6icu_7713UnicodeString6charAtEi.exit55.thread

_ZNK6icu_7713UnicodeString6charAtEi.exit55:       ; preds = %62
  %71 = and i16 %63, 2
  %.not.i.i.i54 = icmp eq i16 %71, 0
  %72 = load ptr, ptr %41, align 8
  %73 = select i1 %.not.i.i.i54, ptr %72, ptr %40
  %74 = getelementptr inbounds nuw i16, ptr %73, i64 %indvars.iv64
  %75 = load i16, ptr %74, align 2, !tbaa !16
  %76 = add i16 %75, -97
  %or.cond5 = icmp ult i16 %76, 26
  br i1 %or.cond5, label %77, label %_ZNK6icu_7713UnicodeString6charAtEi.exit55.thread

77:                                               ; preds = %_ZNK6icu_7713UnicodeString6charAtEi.exit55
  %78 = add nsw i16 %75, -32
  %79 = trunc nuw nsw i64 %indvars.iv64 to i32
  %80 = tail call noundef nonnull align 8 dereferenceable(64) ptr @_ZN6icu_7713UnicodeString9setCharAtEiDs(ptr noundef nonnull align 8 dereferenceable(64) %1, i32 noundef %79, i16 noundef zeroext %78)
  br label %_ZNK6icu_7713UnicodeString6charAtEi.exit55.thread

_ZNK6icu_7713UnicodeString6charAtEi.exit55.thread: ; preds = %62, %77, %_ZNK6icu_7713UnicodeString6charAtEi.exit55
  %indvars.iv.next65 = add nuw nsw i64 %indvars.iv64, 1
  %exitcond68.not = icmp eq i64 %indvars.iv.next65, %wide.trip.count67
  br i1 %exitcond68.not, label %.loopexit, label %62, !llvm.loop !20

.loopexit:                                        ; preds = %_ZNK6icu_7713UnicodeString6charAtEi.exit55.thread, %.preheader, %4
  ret ptr %1
}